target datalayout = "e-m:e-p270:32:32-p271:32:32-p272:64:64-i64:64-i128:128-f80:128-n8:16:32:64-S128"
target triple = "x86_64-pc-linux-gnu"

; Function Attrs: nounwind uwtable
define internal void @pred_dc_10(ptr noundef %0, ptr noundef %1, ptr noundef %2, i64 noundef %3, i32 noundef %4, i32 noundef %5) #0 {
  %7 = alloca ptr, align 8
  %8 = alloca ptr, align 8
  %9 = alloca ptr, align 8
  %10 = alloca i64, align 8
  %11 = alloca i32, align 4
  %12 = alloca i32, align 4
  %13 = alloca i32, align 4
  %14 = alloca i32, align 4
  %15 = alloca i32, align 4
  %16 = alloca i32, align 4
  %17 = alloca i32, align 4
  %18 = alloca ptr, align 8
  %19 = alloca ptr, align 8
  %20 = alloca ptr, align 8
  %21 = alloca i32, align 4
  %22 = alloca i64, align 8
  store ptr %0, ptr %7, align 8, !tbaa !18
  store ptr %1, ptr %8, align 8, !tbaa !18
  store ptr %2, ptr %9, align 8, !tbaa !18
  store i64 %3, ptr %10, align 8, !tbaa !20
  store i32 %4, ptr %11, align 4, !tbaa !9
  store i32 %5, ptr %12, align 4, !tbaa !9
  call void @llvm.lifetime.start.p0(i64 4, ptr %13) #6
  call void @llvm.lifetime.start.p0(i64 4, ptr %14) #6
  call void @llvm.lifetime.start.p0(i64 4, ptr %15) #6
  call void @llvm.lifetime.start.p0(i64 4, ptr %16) #6
  call void @llvm.lifetime.start.p0(i64 4, ptr %17) #6
  %23 = load i32, ptr %11, align 4, !tbaa !9
  %24 = shl i32 1, %23
  store i32 %24, ptr %17, align 4, !tbaa !9
  call void @llvm.lifetime.start.p0(i64 8, ptr %18) #6
  %25 = load ptr, ptr %7, align 8, !tbaa !18
  store ptr %25, ptr %18, align 8, !tbaa !22
  call void @llvm.lifetime.start.p0(i64 8, ptr %19) #6
  %26 = load ptr, ptr %8, align 8, !tbaa !18
  store ptr %26, ptr %19, align 8, !tbaa !22
  call void @llvm.lifetime.start.p0(i64 8, ptr %20) #6
  %27 = load ptr, ptr %9, align 8, !tbaa !18
  store ptr %27, ptr %20, align 8, !tbaa !22
  call void @llvm.lifetime.start.p0(i64 4, ptr %21) #6
  %28 = load i32, ptr %17, align 4, !tbaa !9
  store i32 %28, ptr %21, align 4, !tbaa !9
  call void @llvm.lifetime.start.p0(i64 8, ptr %22) #6
  store i32 0, ptr %13, align 4, !tbaa !9
  br label %29

29:                                               ; preds = %49, %6
  %30 = load i32, ptr %13, align 4, !tbaa !9
  %31 = load i32, ptr %17, align 4, !tbaa !9
  %32 = icmp slt i32 %30, %31
  br i1 %32, label %33, label %52

33:                                               ; preds = %29
  %34 = load ptr, ptr %20, align 8, !tbaa !22
  %35 = load i32, ptr %13, align 4, !tbaa !9
  %36 = sext i32 %35 to i64
  %37 = getelementptr inbounds i16, ptr %34, i64 %36
  %38 = load i16, ptr %37, align 2, !tbaa !24
  %39 = zext i16 %38 to i32
  %40 = load ptr, ptr %19, align 8, !tbaa !22
  %41 = load i32, ptr %13, align 4, !tbaa !9
  %42 = sext i32 %41 to i64
  %43 = getelementptr inbounds i16, ptr %40, i64 %42
  %44 = load i16, ptr %43, align 2, !tbaa !24
  %45 = zext i16 %44 to i32
  %46 = add nsw i32 %39, %45
  %47 = load i32, ptr %21, align 4, !tbaa !9
  %48 = add nsw i32 %47, %46
  store i32 %48, ptr %21, align 4, !tbaa !9
  br label %49

49:                                               ; preds = %33
  %50 = load i32, ptr %13, align 4, !tbaa !9
  %51 = add nsw i32 %50, 1
  store i32 %51, ptr %13, align 4, !tbaa !9
  br label %29, !llvm.loop !33

52:                                               ; preds = %29
  %53 = load i32, ptr %11, align 4, !tbaa !9
  %54 = add nsw i32 %53, 1
  %55 = load i32, ptr %21, align 4, !tbaa !9
  %56 = ashr i32 %55, %54
  store i32 %56, ptr %21, align 4, !tbaa !9
  %57 = load i32, ptr %21, align 4, !tbaa !9
  %58 = sext i32 %57 to i64
  %59 = mul i64 %58, 281479271743489
  store i64 %59, ptr %22, align 8, !tbaa !20
  store i32 0, ptr %13, align 4, !tbaa !9
  br label %60

60:                                               ; preds = %84, %52
  %61 = load i32, ptr %13, align 4, !tbaa !9
  %62 = load i32, ptr %17, align 4, !tbaa !9
  %63 = icmp slt i32 %61, %62
  br i1 %63, label %64, label %87

64:                                               ; preds = %60
  store i32 0, ptr %14, align 4, !tbaa !9
  br label %65

65:                                               ; preds = %80, %64
  %66 = load i32, ptr %14, align 4, !tbaa !9
  %67 = load i32, ptr %17, align 4, !tbaa !9
  %68 = icmp slt i32 %66, %67
  br i1 %68, label %69, label %83

69:                                               ; preds = %65
  %70 = load i64, ptr %22, align 8, !tbaa !20
  %71 = load ptr, ptr %18, align 8, !tbaa !22
  %72 = load i32, ptr %14, align 4, !tbaa !9
  %73 = sext i32 %72 to i64
  %74 = load i64, ptr %10, align 8, !tbaa !20
  %75 = load i32, ptr %13, align 4, !tbaa !9
  %76 = sext i32 %75 to i64
  %77 = mul nsw i64 %74, %76
  %78 = add nsw i64 %73, %77
  %79 = getelementptr inbounds i16, ptr %71, i64 %78
  store i64 %70, ptr %79, align 1, !tbaa !28
  br label %80

80:                                               ; preds = %69
  %81 = load i32, ptr %14, align 4, !tbaa !9
  %82 = add nsw i32 %81, 4
  store i32 %82, ptr %14, align 4, !tbaa !9
  br label %65, !llvm.loop !34

83:                                               ; preds = %65
  br label %84

84:                                               ; preds = %83
  %85 = load i32, ptr %13, align 4, !tbaa !9
  %86 = add nsw i32 %85, 1
  store i32 %86, ptr %13, align 4, !tbaa !9
  br label %60, !llvm.loop !35

87:                                               ; preds = %60
  %88 = load i32, ptr %12, align 4, !tbaa !9
  %89 = icmp eq i32 %88, 0
  br i1 %89, label %90, label %170

90:                                               ; preds = %87
  %91 = load i32, ptr %17, align 4, !tbaa !9
  %92 = icmp slt i32 %91, 32
  br i1 %92, label %93, label %170

93:                                               ; preds = %90
  %94 = load ptr, ptr %20, align 8, !tbaa !22
  %95 = getelementptr inbounds i16, ptr %94, i64 0
  %96 = load i16, ptr %95, align 2, !tbaa !24
  %97 = zext i16 %96 to i32
  %98 = load i32, ptr %21, align 4, !tbaa !9
  %99 = mul nsw i32 2, %98
  %100 = add nsw i32 %97, %99
  %101 = load ptr, ptr %19, align 8, !tbaa !22
  %102 = getelementptr inbounds i16, ptr %101, i64 0
  %103 = load i16, ptr %102, align 2, !tbaa !24
  %104 = zext i16 %103 to i32
  %105 = add nsw i32 %100, %104
  %106 = add nsw i32 %105, 2
  %107 = ashr i32 %106, 2
  %108 = trunc i32 %107 to i16
  %109 = load ptr, ptr %18, align 8, !tbaa !22
  %110 = load i64, ptr %10, align 8, !tbaa !20
  %111 = mul nsw i64 %110, 0
  %112 = add nsw i64 0, %111
  %113 = getelementptr inbounds i16, ptr %109, i64 %112
  store i16 %108, ptr %113, align 2, !tbaa !24
  store i32 1, ptr %15, align 4, !tbaa !9
  br label %114

114:                                              ; preds = %138, %93
  %115 = load i32, ptr %15, align 4, !tbaa !9
  %116 = load i32, ptr %17, align 4, !tbaa !9
  %117 = icmp slt i32 %115, %116
  br i1 %117, label %118, label %141

118:                                              ; preds = %114
  %119 = load ptr, ptr %19, align 8, !tbaa !22
  %120 = load i32, ptr %15, align 4, !tbaa !9
  %121 = sext i32 %120 to i64
  %122 = getelementptr inbounds i16, ptr %119, i64 %121
  %123 = load i16, ptr %122, align 2, !tbaa !24
  %124 = zext i16 %123 to i32
  %125 = load i32, ptr %21, align 4, !tbaa !9
  %126 = mul nsw i32 3, %125
  %127 = add nsw i32 %124, %126
  %128 = add nsw i32 %127, 2
  %129 = ashr i32 %128, 2
  %130 = trunc i32 %129 to i16
  %131 = load ptr, ptr %18, align 8, !tbaa !22
  %132 = load i32, ptr %15, align 4, !tbaa !9
  %133 = sext i32 %132 to i64
  %134 = load i64, ptr %10, align 8, !tbaa !20
  %135 = mul nsw i64 %134, 0
  %136 = add nsw i64 %133, %135
  %137 = getelementptr inbounds i16, ptr %131, i64 %136
  store i16 %130, ptr %137, align 2, !tbaa !24
  br label %138

138:                                              ; preds = %118
  %139 = load i32, ptr %15, align 4, !tbaa !9
  %140 = add nsw i32 %139, 1
  store i32 %140, ptr %15, align 4, !tbaa !9
  br label %114, !llvm.loop !36

141:                                              ; preds = %114
  store i32 1, ptr %16, align 4, !tbaa !9
  br label %142

142:                                              ; preds = %166, %141
  %143 = load i32, ptr %16, align 4, !tbaa !9
  %144 = load i32, ptr %17, align 4, !tbaa !9
  %145 = icmp slt i32 %143, %144
  br i1 %145, label %146, label %169

146:                                              ; preds = %142
  %147 = load ptr, ptr %20, align 8, !tbaa !22
  %148 = load i32, ptr %16, align 4, !tbaa !9
  %149 = sext i32 %148 to i64
  %150 = getelementptr inbounds i16, ptr %147, i64 %149
  %151 = load i16, ptr %150, align 2, !tbaa !24
  %152 = zext i16 %151 to i32
  %153 = load i32, ptr %21, align 4, !tbaa !9
  %154 = mul nsw i32 3, %153
  %155 = add nsw i32 %152, %154
  %156 = add nsw i32 %155, 2
  %157 = ashr i32 %156, 2
  %158 = trunc i32 %157 to i16
  %159 = load ptr, ptr %18, align 8, !tbaa !22
  %160 = load i64, ptr %10, align 8, !tbaa !20
  %161 = load i32, ptr %16, align 4, !tbaa !9
  %162 = sext i32 %161 to i64
  %163 = mul nsw i64 %160, %162
  %164 = add nsw i64 0, %163
  %165 = getelementptr inbounds i16, ptr %159, i64 %164
  store i16 %158, ptr %165, align 2, !tbaa !24
  br label %166

166:                                              ; preds = %146
  %167 = load i32, ptr %16, align 4, !tbaa !9
  %168 = add nsw i32 %167, 1
  store i32 %168, ptr %16, align 4, !tbaa !9
  br label %142, !llvm.loop !37

169:                                              ; preds = %142
  br label %170

170:                                              ; preds = %169, %90, %87
  call void @llvm.lifetime.end.p0(i64 8, ptr %22) #6
  call void @llvm.lifetime.end.p0(i64 4, ptr %21) #6
  call void @llvm.lifetime.end.p0(i64 8, ptr %20) #6
  call void @llvm.lifetime.end.p0(i64 8, ptr %19) #6
  call void @llvm.lifetime.end.p0(i64 8, ptr %18) #6
  call void @llvm.lifetime.end.p0(i64 4, ptr %17) #6
  call void @llvm.lifetime.end.p0(i64 4, ptr %16) #6
  call void @llvm.lifetime.end.p0(i64 4, ptr %15) #6
  call void @llvm.lifetime.end.p0(i64 4, ptr %14) #6
  call void @llvm.lifetime.end.p0(i64 4, ptr %13) #6
  ret void
}