; Function Attrs: nofree norecurse nosync nounwind memory(argmem: readwrite) uwtable
define internal void @pred_dc_10(ptr noundef writeonly captures(none) %0, ptr noundef readonly captures(none) %1, ptr noundef readonly captures(none) %2, i64 noundef %3, i32 noundef %4, i32 noundef %5) #2 {
  %7 = shl nuw i32 1, %4
  %.not = icmp eq i32 %4, 31
  br i1 %.not, label %._crit_edge64, label %.lr.ph.preheader

.lr.ph.preheader:                                 ; preds = %6
  %smax = tail call i32 @llvm.smax.i32(i32 %7, i32 1)
  %wide.trip.count = zext nneg i32 %smax to i64
  br label %.lr.ph

.lr.ph:                                           ; preds = %.lr.ph.preheader, %.lr.ph
  %indvars.iv = phi i64 [ 0, %.lr.ph.preheader ], [ %indvars.iv.next, %.lr.ph ]
  %.05258 = phi i32 [ %7, %.lr.ph.preheader ], [ %15, %.lr.ph ]
  %8 = getelementptr inbounds nuw i16, ptr %2, i64 %indvars.iv
  %9 = load i16, ptr %8, align 2, !tbaa !124
  %10 = zext i16 %9 to i32
  %11 = getelementptr inbounds nuw i16, ptr %1, i64 %indvars.iv
  %12 = load i16, ptr %11, align 2, !tbaa !124
  %13 = zext i16 %12 to i32
  %14 = add i32 %.05258, %10
  %15 = add i32 %14, %13
  %indvars.iv.next = add nuw nsw i64 %indvars.iv, 1
  %exitcond.not = icmp eq i64 %indvars.iv.next, %wide.trip.count
  br i1 %exitcond.not, label %.preheader57.us.preheader, label %.lr.ph, !llvm.loop !210

.preheader57.us.preheader:                        ; preds = %.lr.ph
  %16 = add nsw i32 %4, 1
  %17 = ashr i32 %15, %16
  %18 = sext i32 %17 to i64
  %19 = mul i64 %18, 281479271743489
  %20 = sext i32 %7 to i64
  %smax78 = tail call i32 @llvm.smax.i32(i32 %7, i32 1)
  %wide.trip.count79 = zext nneg i32 %smax78 to i64
  br label %.preheader57.us

.preheader57.us:                                  ; preds = %.preheader57.us.preheader, %._crit_edge62.us
  %indvars.iv75 = phi i64 [ 0, %.preheader57.us.preheader ], [ %indvars.iv.next76, %._crit_edge62.us ]
  %21 = mul nsw i64 %3, %indvars.iv75
  %22 = getelementptr i16, ptr %0, i64 %21
  br label %23

23:                                               ; preds = %.preheader57.us, %23
  %indvars.iv72 = phi i64 [ 0, %.preheader57.us ], [ %indvars.iv.next73, %23 ]
  %24 = getelementptr i16, ptr %22, i64 %indvars.iv72
  store i64 %19, ptr %24, align 1, !tbaa !97
  %indvars.iv.next73 = add nuw nsw i64 %indvars.iv72, 4
  %25 = icmp slt i64 %indvars.iv.next73, %20
  br i1 %25, label %23, label %._crit_edge62.us, !llvm.loop !211

._crit_edge62.us:                                 ; preds = %23
  %indvars.iv.next76 = add nuw nsw i64 %indvars.iv75, 1
  %exitcond80.not = icmp eq i64 %indvars.iv.next76, %wide.trip.count79
  br i1 %exitcond80.not, label %._crit_edge64, label %.preheader57.us, !llvm.loop !212

._crit_edge64:                                    ; preds = %._crit_edge62.us, %6
  %26 = phi i32 [ -1, %6 ], [ %17, %._crit_edge62.us ]
  %27 = icmp eq i32 %5, 0
  %28 = icmp slt i32 %7, 32
  %or.cond = and i1 %27, %28
  br i1 %or.cond, label %29, label %.loopexit

29:                                               ; preds = %._crit_edge64
  %30 = load i16, ptr %2, align 2, !tbaa !124
  %31 = zext i16 %30 to i32
  %32 = shl nsw i32 %26, 1
  %33 = load i16, ptr %1, align 2, !tbaa !124
  %34 = zext i16 %33 to i32
  %35 = add i32 %32, 2
  %36 = add i32 %35, %31
  %37 = add i32 %36, %34
  %38 = lshr i32 %37, 2
  %39 = trunc i32 %38 to i16
  store i16 %39, ptr %0, align 2, !tbaa !124
  %40 = icmp sgt i32 %7, 1
  br i1 %40, label %.lr.ph67, label %.loopexit

.lr.ph67:                                         ; preds = %29
  %41 = mul nsw i32 %26, 3
  %42 = add i32 %41, 2
  %wide.trip.count84 = zext nneg i32 %7 to i64
  br label %45

.lr.ph69:                                         ; preds = %45
  %43 = mul nsw i32 %26, 3
  %44 = add i32 %43, 2
  %wide.trip.count89 = zext nneg i32 %7 to i64
  br label %53

45:                                               ; preds = %.lr.ph67, %45
  %indvars.iv81 = phi i64 [ 1, %.lr.ph67 ], [ %indvars.iv.next82, %45 ]
  %46 = getelementptr inbounds nuw i16, ptr %1, i64 %indvars.iv81
  %47 = load i16, ptr %46, align 2, !tbaa !124
  %48 = zext i16 %47 to i32
  %49 = add i32 %42, %48
  %50 = lshr i32 %49, 2
  %51 = trunc i32 %50 to i16
  %52 = getelementptr inbounds nuw i16, ptr %0, i64 %indvars.iv81
  store i16 %51, ptr %52, align 2, !tbaa !124
  %indvars.iv.next82 = add nuw nsw i64 %indvars.iv81, 1
  %exitcond85.not = icmp eq i64 %indvars.iv.next82, %wide.trip.count84
  br i1 %exitcond85.not, label %.lr.ph69, label %45, !llvm.loop !213

53:                                               ; preds = %.lr.ph69, %53
  %indvars.iv86 = phi i64 [ 1, %.lr.ph69 ], [ %indvars.iv.next87, %53 ]
  %54 = getelementptr inbounds nuw i16, ptr %2, i64 %indvars.iv86
  %55 = load i16, ptr %54, align 2, !tbaa !124
  %56 = zext i16 %55 to i32
  %57 = add i32 %44, %56
  %58 = lshr i32 %57, 2
  %59 = trunc i32 %58 to i16
  %60 = mul nsw i64 %3, %indvars.iv86
  %61 = getelementptr inbounds i16, ptr %0, i64 %60
  store i16 %59, ptr %61, align 2, !tbaa !124
  %indvars.iv.next87 = add nuw nsw i64 %indvars.iv86, 1
  %exitcond90.not = icmp eq i64 %indvars.iv.next87, %wide.trip.count89
  br i1 %exitcond90.not, label %.loopexit, label %53, !llvm.loop !214

.loopexit:                                        ; preds = %53, %29, %._crit_edge64
  ret void
}